; ModuleID = '45/942.c'
source_filename = "45/942.c"
target datalayout = "e-m:e-p270:32:32-p271:32:32-p272:64:64-i64:64-f80:128-n8:16:32:64-S128"
target triple = "x86_64-pc-linux-gnu"

@.str = private unnamed_addr constant [3 x i8] c"%s\00", align 1
@.str.1 = private unnamed_addr constant [3 x i8] c"%d\00", align 1

; Function Attrs: noinline nounwind uwtable
define dso_local i32 @main() #0 {
  %1 = alloca i32, align 4
  %2 = alloca i32, align 4
  %3 = alloca i32, align 4
  %4 = alloca i32, align 4
  %5 = alloca i32, align 4
  %6 = alloca [50 x i8], align 16
  %7 = alloca [50 x i8], align 16
  %8 = alloca i8*, align 8
  %9 = alloca i8*, align 8
  %10 = alloca i32, align 4
  %11 = alloca i32, align 4
  store i32 0, i32* %1, align 4
  %12 = getelementptr inbounds [50 x i8], [50 x i8]* %6, i64 0, i64 0
  store i8* %12, i8** %8, align 8
  %13 = getelementptr inbounds [50 x i8], [50 x i8]* %7, i64 0, i64 0
  store i8* %13, i8** %9, align 8
  %14 = getelementptr inbounds [50 x i8], [50 x i8]* %6, i64 0, i64 0
  %15 = call i32 (i8*, ...) @__isoc99_scanf(i8* getelementptr inbounds ([3 x i8], [3 x i8]* @.str, i64 0, i64 0), i8* %14)
  %16 = getelementptr inbounds [50 x i8], [50 x i8]* %7, i64 0, i64 0
  %17 = call i32 (i8*, ...) @__isoc99_scanf(i8* getelementptr inbounds ([3 x i8], [3 x i8]* @.str, i64 0, i64 0), i8* %16)
  %18 = getelementptr inbounds [50 x i8], [50 x i8]* %6, i64 0, i64 0
  %19 = call i64 @strlen(i8* %18) #3
  %20 = trunc i64 %19 to i32
  store i32 %20, i32* %10, align 4
  %21 = getelementptr inbounds [50 x i8], [50 x i8]* %7, i64 0, i64 0
  %22 = call i64 @strlen(i8* %21) #3
  %23 = trunc i64 %22 to i32
  store i32 %23, i32* %11, align 4
  store i32 0, i32* %5, align 4
  store i32 0, i32* %4, align 4
  br label %24

24:                                               ; preds = %97, %0
  %25 = load i32, i32* %5, align 4
  %26 = load i32, i32* %11, align 4
  %27 = icmp slt i32 %25, %26
  br i1 %27, label %28, label %31

28:                                               ; preds = %24
  %29 = load i32, i32* %4, align 4
  %30 = icmp eq i32 %29, 0
  br label %31

31:                                               ; preds = %28, %24
  %32 = phi i1 [ false, %24 ], [ %30, %28 ]
  br i1 %32, label %33, label %102

33:                                               ; preds = %31
  %34 = load i32, i32* %5, align 4
  store i32 %34, i32* %2, align 4
  br label %35

35:                                               ; preds = %56, %33
  %36 = load i8*, i8** %8, align 8
  %37 = load i8, i8* %36, align 1
  %38 = sext i8 %37 to i32
  %39 = load i8*, i8** %9, align 8
  %40 = load i8, i8* %39, align 1
  %41 = sext i8 %40 to i32
  %42 = icmp ne i32 %38, %41
  br i1 %42, label %43, label %53

43:                                               ; preds = %35
  %44 = load i8*, i8** %8, align 8
  %45 = load i8, i8* %44, align 1
  %46 = sext i8 %45 to i32
  %47 = icmp ne i32 %46, 0
  br i1 %47, label %48, label %53

48:                                               ; preds = %43
  %49 = load i8*, i8** %9, align 8
  %50 = load i8, i8* %49, align 1
  %51 = sext i8 %50 to i32
  %52 = icmp ne i32 %51, 0
  br label %53

53:                                               ; preds = %48, %43, %35
  %54 = phi i1 [ false, %43 ], [ false, %35 ], [ %52, %48 ]
  br i1 %54, label %55, label %61

55:                                               ; preds = %53
  br label %56

56:                                               ; preds = %55
  %57 = load i8*, i8** %9, align 8
  %58 = getelementptr inbounds i8, i8* %57, i32 1
  store i8* %58, i8** %9, align 8
  %59 = load i32, i32* %2, align 4
  %60 = add nsw i32 %59, 1
  store i32 %60, i32* %2, align 4
  br label %35

61:                                               ; preds = %53
  store i32 0, i32* %3, align 4
  store i32 1, i32* %4, align 4
  br label %62

62:                                               ; preds = %89, %61
  %63 = load i8*, i8** %8, align 8
  %64 = load i8, i8* %63, align 1
  %65 = sext i8 %64 to i32
  %66 = icmp ne i32 %65, 0
  br i1 %66, label %67, label %72

67:                                               ; preds = %62
  %68 = load i8*, i8** %9, align 8
  %69 = load i8, i8* %68, align 1
  %70 = sext i8 %69 to i32
  %71 = icmp ne i32 %70, 0
  br label %72

72:                                               ; preds = %67, %62
  %73 = phi i1 [ false, %62 ], [ %71, %67 ]
  br i1 %73, label %74, label %96

74:                                               ; preds = %72
  %75 = load i8*, i8** %8, align 8
  %76 = load i8, i8* %75, align 1
  %77 = sext i8 %76 to i32
  %78 = load i8*, i8** %9, align 8
  %79 = load i8, i8* %78, align 1
  %80 = sext i8 %79 to i32
  %81 = icmp ne i32 %77, %80
  br i1 %81, label %82, label %88

82:                                               ; preds = %74
  %83 = load i32, i32* %3, align 4
  %84 = add nsw i32 %83, 1
  %85 = load i32, i32* %10, align 4
  %86 = icmp slt i32 %84, %85
  br i1 %86, label %87, label %88

87:                                               ; preds = %82
  store i32 0, i32* %4, align 4
  br label %96

88:                                               ; preds = %82, %74
  br label %89

89:                                               ; preds = %88
  %90 = load i8*, i8** %8, align 8
  %91 = getelementptr inbounds i8, i8* %90, i32 1
  store i8* %91, i8** %8, align 8
  %92 = load i8*, i8** %9, align 8
  %93 = getelementptr inbounds i8, i8* %92, i32 1
  store i8* %93, i8** %9, align 8
  %94 = load i32, i32* %3, align 4
  %95 = add nsw i32 %94, 1
  store i32 %95, i32* %3, align 4
  br label %62

96:                                               ; preds = %87, %72
  br label %97

97:                                               ; preds = %96
  %98 = load i32, i32* %2, align 4
  %99 = add nsw i32 %98, 1
  %100 = load i32, i32* %5, align 4
  %101 = add nsw i32 %100, %99
  store i32 %101, i32* %5, align 4
  br label %24

102:                                              ; preds = %31
  %103 = load i32, i32* %2, align 4
  %104 = call i32 (i8*, ...) @printf(i8* getelementptr inbounds ([3 x i8], [3 x i8]* @.str.1, i64 0, i64 0), i32 %103)
  ret i32 0
}

declare dso_local i32 @__isoc99_scanf(i8*, ...) #1

; Function Attrs: nounwind readonly
declare dso_local i64 @strlen(i8*) #2

declare dso_local i32 @printf(i8*, ...) #1


!llvm.module.flags = !{!0}
!llvm.ident = !{!1}

!0 = !{i32 1, !"wchar_size", i32 4}
!1 = !{!"clang version 10.0.0-4ubuntu1 "}
